; Function Attrs: nounwind uwtable
define internal fastcc void @credential_format(ptr noundef readonly captures(none) %0, ptr noundef nonnull %1) unnamed_addr #3 {
  %3 = getelementptr inbounds nuw i8, ptr %0, i64 152
  %4 = load ptr, ptr %3, align 8, !tbaa !18
  %.not = icmp eq ptr %4, null
  br i1 %.not, label %42, label %5

5:                                                ; preds = %2
  tail call void (ptr, ptr, ...) @strbuf_addf(ptr noundef nonnull %1, ptr noundef nonnull @.str.41, ptr noundef nonnull %4) #19
  %6 = getelementptr inbounds nuw i8, ptr %0, i64 128
  %7 = load ptr, ptr %6, align 8, !tbaa !21
  %.not17 = icmp eq ptr %7, null
  br i1 %.not17, label %22, label %8

8:                                                ; preds = %5
  %9 = load i8, ptr %7, align 1, !tbaa !27
  %.not18 = icmp eq i8 %9, 0
  br i1 %.not18, label %22, label %10

10:                                               ; preds = %8
  tail call void @strbuf_add_percentencode(ptr noundef nonnull %1, ptr noundef nonnull %7, i32 noundef 1) #19
  %11 = load i64, ptr %1, align 8, !tbaa !62
  %.not.i.i = icmp eq i64 %11, 0
  br i1 %.not.i.i, label %strbuf_avail.exit.thread.i, label %strbuf_avail.exit.i

strbuf_avail.exit.i:                              ; preds = %10
  %12 = getelementptr inbounds nuw i8, ptr %1, i64 8
  %13 = load i64, ptr %12, align 8, !tbaa !26
  %.neg.i = add i64 %13, 1
  %.not.i = icmp eq i64 %11, %.neg.i
  br i1 %.not.i, label %strbuf_avail.exit.thread.i, label %strbuf_addch.exit

strbuf_avail.exit.thread.i:                       ; preds = %strbuf_avail.exit.i, %10
  tail call void @strbuf_grow(ptr noundef nonnull %1, i64 noundef 1) #19
  %.phi.trans.insert.i = getelementptr inbounds nuw i8, ptr %1, i64 8
  %.pre.i = load i64, ptr %.phi.trans.insert.i, align 8, !tbaa !26
  %.pre7.i = add i64 %.pre.i, 1
  br label %strbuf_addch.exit

strbuf_addch.exit:                                ; preds = %strbuf_avail.exit.i, %strbuf_avail.exit.thread.i
  %.pre-phi.i = phi i64 [ %.pre7.i, %strbuf_avail.exit.thread.i ], [ %.neg.i, %strbuf_avail.exit.i ]
  %14 = phi i64 [ %.pre.i, %strbuf_avail.exit.thread.i ], [ %13, %strbuf_avail.exit.i ]
  %15 = getelementptr inbounds nuw i8, ptr %1, i64 16
  %16 = load ptr, ptr %15, align 8, !tbaa !24
  %17 = getelementptr inbounds nuw i8, ptr %1, i64 8
  store i64 %.pre-phi.i, ptr %17, align 8, !tbaa !26
  %18 = getelementptr inbounds nuw i8, ptr %16, i64 %14
  store i8 64, ptr %18, align 1, !tbaa !27
  %19 = load ptr, ptr %15, align 8, !tbaa !24
  %20 = load i64, ptr %17, align 8, !tbaa !26
  %21 = getelementptr inbounds nuw i8, ptr %19, i64 %20
  store i8 0, ptr %21, align 1, !tbaa !27
  br label %22

22:                                               ; preds = %strbuf_addch.exit, %8, %5
  %23 = getelementptr inbounds nuw i8, ptr %0, i64 160
  %24 = load ptr, ptr %23, align 8, !tbaa !19
  %.not19 = icmp eq ptr %24, null
  br i1 %.not19, label %26, label %25

25:                                               ; preds = %22
  tail call void @strbuf_add_percentencode(ptr noundef nonnull %1, ptr noundef nonnull %24, i32 noundef 2) #19
  br label %26

26:                                               ; preds = %25, %22
  %27 = getelementptr inbounds nuw i8, ptr %0, i64 168
  %28 = load ptr, ptr %27, align 8, !tbaa !20
  %.not20 = icmp eq ptr %28, null
  br i1 %.not20, label %42, label %29

29:                                               ; preds = %26
  %30 = load i64, ptr %1, align 8, !tbaa !62
  %.not.i.i21 = icmp eq i64 %30, 0
  br i1 %.not.i.i21, label %strbuf_avail.exit.thread.i26, label %strbuf_avail.exit.i22

strbuf_avail.exit.i22:                            ; preds = %29
  %31 = getelementptr inbounds nuw i8, ptr %1, i64 8
  %32 = load i64, ptr %31, align 8, !tbaa !26
  %.neg.i23 = add i64 %32, 1
  %.not.i24 = icmp eq i64 %30, %.neg.i23
  br i1 %.not.i24, label %strbuf_avail.exit.thread.i26, label %strbuf_addch.exit30

strbuf_avail.exit.thread.i26:                     ; preds = %strbuf_avail.exit.i22, %29
  tail call void @strbuf_grow(ptr noundef nonnull %1, i64 noundef 1) #19
  %.phi.trans.insert.i27 = getelementptr inbounds nuw i8, ptr %1, i64 8
  %.pre.i28 = load i64, ptr %.phi.trans.insert.i27, align 8, !tbaa !26
  %.pre7.i29 = add i64 %.pre.i28, 1
  br label %strbuf_addch.exit30

strbuf_addch.exit30:                              ; preds = %strbuf_avail.exit.i22, %strbuf_avail.exit.thread.i26
  %.pre-phi.i25 = phi i64 [ %.pre7.i29, %strbuf_avail.exit.thread.i26 ], [ %.neg.i23, %strbuf_avail.exit.i22 ]
  %33 = phi i64 [ %.pre.i28, %strbuf_avail.exit.thread.i26 ], [ %32, %strbuf_avail.exit.i22 ]
  %34 = getelementptr inbounds nuw i8, ptr %1, i64 16
  %35 = load ptr, ptr %34, align 8, !tbaa !24
  %36 = getelementptr inbounds nuw i8, ptr %1, i64 8
  store i64 %.pre-phi.i25, ptr %36, align 8, !tbaa !26
  %37 = getelementptr inbounds nuw i8, ptr %35, i64 %33
  store i8 47, ptr %37, align 1, !tbaa !27
  %38 = load ptr, ptr %34, align 8, !tbaa !24
  %39 = load i64, ptr %36, align 8, !tbaa !26
  %40 = getelementptr inbounds nuw i8, ptr %38, i64 %39
  store i8 0, ptr %40, align 1, !tbaa !27
  %41 = load ptr, ptr %27, align 8, !tbaa !20
  tail call void @strbuf_add_percentencode(ptr noundef nonnull %1, ptr noundef %41, i32 noundef 0) #19
  br label %42

42:                                               ; preds = %2, %strbuf_addch.exit30, %26
  ret void
}